target datalayout = "e-m:e-p270:32:32-p271:32:32-p272:64:64-i64:64-i128:128-f80:128-n8:16:32:64-S128"
target triple = "x86_64-unknown-linux-gnu"

%"class.icu_75::LocaleKeyFactory" = type <{ %"class.icu_75::ICUServiceFactory", %"class.icu_75::UnicodeString", i32, [4 x i8] }>
%"class.icu_75::ICUServiceFactory" = type { %"class.icu_75::UObject" }
%"class.icu_75::UObject" = type { ptr }
%"class.icu_75::UnicodeString" = type { %"class.icu_75::Replaceable", %"union.icu_75::UnicodeString::StackBufferOrFields" }
%"class.icu_75::Replaceable" = type { %"class.icu_75::UObject" }
%"union.icu_75::UnicodeString::StackBufferOrFields" = type { %struct.anon.0, [32 x i8] }
%struct.anon.0 = type { i16, i32, i32, ptr }
%"class.icu_75::Locale" = type <{ %"class.icu_75::UObject", [12 x i8], [6 x i8], [4 x i8], [2 x i8], i32, [4 x i8], ptr, [157 x i8], [3 x i8], ptr, i8, [7 x i8] }>

; Function Attrs: mustprogress uwtable
define noundef nonnull align 8 dereferenceable(64) ptr @_ZNK6icu_7516LocaleKeyFactory14getDisplayNameERKNS_13UnicodeStringERKNS_6LocaleERS1_(ptr noundef nonnull align 8 dereferenceable(76) %this, ptr noundef nonnull align 8 dereferenceable(64) %id, ptr noundef nonnull align 8 dereferenceable(217) %locale, ptr noundef nonnull align 8 dereferenceable(64) %result) unnamed_addr #1 align 2 personality ptr @__gxx_personality_v0 {
entry:
  %retval = alloca ptr, align 8
  %this.addr = alloca ptr, align 8
  %id.addr = alloca ptr, align 8
  %locale.addr = alloca ptr, align 8
  %result.addr = alloca ptr, align 8
  %loc = alloca %"class.icu_75::Locale", align 8
  %exn.slot = alloca ptr, align 8
  %ehselector.slot = alloca i32, align 4
  store ptr %this, ptr %this.addr, align 8
  store ptr %id, ptr %id.addr, align 8
  store ptr %locale, ptr %locale.addr, align 8
  store ptr %result, ptr %result.addr, align 8
  %this1 = load ptr, ptr %this.addr, align 8
  %_coverage = getelementptr inbounds %"class.icu_75::LocaleKeyFactory", ptr %this1, i32 0, i32 2
  %0 = load i32, ptr %_coverage, align 8
  %and = and i32 %0, 1
  %cmp = icmp eq i32 %and, 0
  br i1 %cmp, label %if.then, label %if.end

if.then:                                          ; preds = %entry
  call void @_ZN6icu_756LocaleC1Ev(ptr noundef nonnull align 8 dereferenceable(217) %loc)
  %1 = load ptr, ptr %id.addr, align 8
  %call = invoke noundef nonnull align 8 dereferenceable(217) ptr @_ZN6icu_7513LocaleUtility18initLocaleFromNameERKNS_13UnicodeStringERNS_6LocaleE(ptr noundef nonnull align 8 dereferenceable(64) %1, ptr noundef nonnull align 8 dereferenceable(217) %loc)
          to label %invoke.cont unwind label %lpad

invoke.cont:                                      ; preds = %if.then
  %2 = load ptr, ptr %locale.addr, align 8
  %3 = load ptr, ptr %result.addr, align 8
  %call3 = invoke noundef nonnull align 8 dereferenceable(64) ptr @_ZNK6icu_756Locale14getDisplayNameERKS0_RNS_13UnicodeStringE(ptr noundef nonnull align 8 dereferenceable(217) %loc, ptr noundef nonnull align 8 dereferenceable(217) %2, ptr noundef nonnull align 8 dereferenceable(64) %3)
          to label %invoke.cont2 unwind label %lpad

invoke.cont2:                                     ; preds = %invoke.cont
  store ptr %call3, ptr %retval, align 8
  call void @_ZN6icu_756LocaleD1Ev(ptr noundef nonnull align 8 dereferenceable(217) %loc) #7
  br label %return

lpad:                                             ; preds = %invoke.cont, %if.then
  %4 = landingpad { ptr, i32 }
          cleanup
  %5 = extractvalue { ptr, i32 } %4, 0
  store ptr %5, ptr %exn.slot, align 8
  %6 = extractvalue { ptr, i32 } %4, 1
  store i32 %6, ptr %ehselector.slot, align 4
  call void @_ZN6icu_756LocaleD1Ev(ptr noundef nonnull align 8 dereferenceable(217) %loc) #7
  br label %eh.resume

if.end:                                           ; preds = %entry
  %7 = load ptr, ptr %result.addr, align 8
  call void @_ZN6icu_7513UnicodeString10setToBogusEv(ptr noundef nonnull align 8 dereferenceable(64) %7)
  %8 = load ptr, ptr %result.addr, align 8
  store ptr %8, ptr %retval, align 8
  br label %return

return:                                           ; preds = %if.end, %invoke.cont2
  %9 = load ptr, ptr %retval, align 8
  ret ptr %9

eh.resume:                                        ; preds = %lpad
  %exn = load ptr, ptr %exn.slot, align 8
  %sel = load i32, ptr %ehselector.slot, align 4
  %lpad.val = insertvalue { ptr, i32 } poison, ptr %exn, 0
  %lpad.val4 = insertvalue { ptr, i32 } %lpad.val, i32 %sel, 1
  resume { ptr, i32 } %lpad.val4
}