; Function Attrs: mustprogress uwtable
define noundef nonnull align 8 dereferenceable(64) ptr @_ZNK6icu_7516LocaleKeyFactory14getDisplayNameERKNS_13UnicodeStringERKNS_6LocaleERS1_(ptr nocapture noundef nonnull readonly align 8 dereferenceable(76) %this, ptr noundef nonnull align 8 dereferenceable(64) %id, ptr noundef nonnull align 8 dereferenceable(217) %locale, ptr noundef nonnull align 8 dereferenceable(64) %result) unnamed_addr #1 align 2 personality ptr @__gxx_personality_v0 {
entry:
  %loc = alloca %"class.icu_75::Locale", align 8
  %_coverage = getelementptr inbounds i8, ptr %this, i64 72
  %0 = load i32, ptr %_coverage, align 8
  %and = and i32 %0, 1
  %cmp = icmp eq i32 %and, 0
  br i1 %cmp, label %if.then, label %if.end

if.then:                                          ; preds = %entry
  call void @_ZN6icu_756LocaleC1Ev(ptr noundef nonnull align 8 dereferenceable(217) %loc)
  %call = invoke noundef nonnull align 8 dereferenceable(217) ptr @_ZN6icu_7513LocaleUtility18initLocaleFromNameERKNS_13UnicodeStringERNS_6LocaleE(ptr noundef nonnull align 8 dereferenceable(64) %id, ptr noundef nonnull align 8 dereferenceable(217) %loc)
          to label %invoke.cont unwind label %lpad

invoke.cont:                                      ; preds = %if.then
  %call3 = invoke noundef nonnull align 8 dereferenceable(64) ptr @_ZNK6icu_756Locale14getDisplayNameERKS0_RNS_13UnicodeStringE(ptr noundef nonnull align 8 dereferenceable(217) %loc, ptr noundef nonnull align 8 dereferenceable(217) %locale, ptr noundef nonnull align 8 dereferenceable(64) %result)
          to label %invoke.cont2 unwind label %lpad

invoke.cont2:                                     ; preds = %invoke.cont
  call void @_ZN6icu_756LocaleD1Ev(ptr noundef nonnull align 8 dereferenceable(217) %loc) #10
  br label %return

lpad:                                             ; preds = %invoke.cont, %if.then
  %1 = landingpad { ptr, i32 }
          cleanup
  call void @_ZN6icu_756LocaleD1Ev(ptr noundef nonnull align 8 dereferenceable(217) %loc) #10
  resume { ptr, i32 } %1

if.end:                                           ; preds = %entry
  tail call void @_ZN6icu_7513UnicodeString10setToBogusEv(ptr noundef nonnull align 8 dereferenceable(64) %result)
  br label %return

return:                                           ; preds = %if.end, %invoke.cont2
  %retval.0 = phi ptr [ %call3, %invoke.cont2 ], [ %result, %if.end ]
  ret ptr %retval.0
}